target datalayout = "e-m:e-p270:32:32-p271:32:32-p272:64:64-i64:64-i128:128-f80:128-n8:16:32:64-S128"
target triple = "x86_64-pc-linux-gnu"

%"class.std::__cxx11::basic_string" = type { %"struct.std::__cxx11::basic_string<char>::_Alloc_hider", i64, %union.anon }
%"struct.std::__cxx11::basic_string<char>::_Alloc_hider" = type { ptr }
%union.anon = type { i64, [8 x i8] }
%class.SafeOpFlags = type { i8, i8, i8, i32 }
%class.FunctionInvocationBinary = type { %class.FunctionInvocation, i32, %"class.std::__cxx11::basic_string", %"class.std::__cxx11::basic_string" }
%class.FunctionInvocation = type { ptr, i32, %"class.std::vector.38", i8, i8, ptr }
%"class.std::vector.38" = type { %"struct.std::_Vector_base.39" }
%"struct.std::_Vector_base.39" = type { %"struct.std::_Vector_base<const Expression *, std::allocator<const Expression *>>::_Vector_impl" }
%"struct.std::_Vector_base<const Expression *, std::allocator<const Expression *>>::_Vector_impl" = type { %"struct.std::_Vector_base<const Expression *, std::allocator<const Expression *>>::_Vector_impl_data" }
%"struct.std::_Vector_base<const Expression *, std::allocator<const Expression *>>::_Vector_impl_data" = type { ptr, ptr, ptr }

; Function Attrs: mustprogress nounwind uwtable
define linkonce_odr dso_local noundef i32 @_ZNK11SafeOpFlags11get_op_sizeEv(ptr noundef nonnull align 4 dereferenceable(8) %0) #4 comdat align 2 {
  %2 = alloca ptr, align 8
  store ptr %0, ptr %2, align 8
  %3 = load ptr, ptr %2, align 8
  %4 = getelementptr inbounds %class.SafeOpFlags, ptr %3, i32 0, i32 3
  %5 = load i32, ptr %4, align 4
  ret i32 %5
}

; Function Attrs: mustprogress nounwind uwtable
define linkonce_odr dso_local noundef nonnull align 8 dereferenceable(8) ptr @_ZNKSt6vectorIPK10ExpressionSaIS2_EEixEm(ptr noundef nonnull align 8 dereferenceable(24) %0, i64 noundef %1) #4 comdat align 2 {
  %3 = alloca ptr, align 8
  %4 = alloca i64, align 8
  store ptr %0, ptr %3, align 8
  store i64 %1, ptr %4, align 8
  %5 = load ptr, ptr %3, align 8
  %6 = getelementptr inbounds %"struct.std::_Vector_base.39", ptr %5, i32 0, i32 0
  %7 = getelementptr inbounds %"struct.std::_Vector_base<const Expression *, std::allocator<const Expression *>>::_Vector_impl_data", ptr %6, i32 0, i32 0
  %8 = load ptr, ptr %7, align 8
  %9 = load i64, ptr %4, align 8
  %10 = getelementptr inbounds ptr, ptr %8, i64 %9
  ret ptr %10
}

; Function Attrs: mustprogress uwtable
define dso_local noundef zeroext i1 @_ZNK24FunctionInvocationBinary20is_return_type_floatEv(ptr noundef nonnull align 8 dereferenceable(128) %0) #5 align 2 {
  %2 = alloca ptr, align 8
  store ptr %0, ptr %2, align 8
  %3 = load ptr, ptr %2, align 8
  %4 = getelementptr inbounds %class.FunctionInvocation, ptr %3, i32 0, i32 5
  %5 = load ptr, ptr %4, align 8
  %6 = call noundef i32 @_ZNK11SafeOpFlags11get_op_sizeEv(ptr noundef nonnull align 4 dereferenceable(8) %5)
  %7 = icmp eq i32 %6, 4
  ret i1 %7
}

; Function Attrs: mustprogress uwtable
define dso_local noundef nonnull align 8 dereferenceable(136) ptr @_ZNK24FunctionInvocationBinary8get_typeEv(ptr noundef nonnull align 8 dereferenceable(128) %0) unnamed_addr #5 align 2 {
  %2 = alloca ptr, align 8
  %3 = alloca ptr, align 8
  %4 = alloca ptr, align 8
  %5 = alloca ptr, align 8
  %6 = alloca ptr, align 8
  store ptr %0, ptr %3, align 8
  %7 = load ptr, ptr %3, align 8
  %8 = call noundef zeroext i1 @_ZNK24FunctionInvocationBinary20is_return_type_floatEv(ptr noundef nonnull align 8 dereferenceable(128) %7)
  br i1 %8, label %9, label %11

9:                                                ; preds = %1
  %10 = call noundef nonnull align 8 dereferenceable(136) ptr @_ZN4Type15get_simple_typeE11eSimpleType(i32 noundef 10)
  store ptr %10, ptr %2, align 8
  br label %57

11:                                               ; preds = %1
  %12 = getelementptr inbounds %class.FunctionInvocationBinary, ptr %7, i32 0, i32 1
  %13 = load i32, ptr %12, align 8
  switch i32 %13, label %14 [
    i32 0, label %15
    i32 1, label %15
    i32 2, label %15
    i32 3, label %15
    i32 4, label %15
    i32 13, label %15
    i32 14, label %15
    i32 15, label %15
    i32 5, label %39
    i32 6, label %39
    i32 7, label %39
    i32 8, label %39
    i32 9, label %39
    i32 10, label %39
    i32 11, label %39
    i32 12, label %39
    i32 16, label %41
    i32 17, label %41
  ]

14:                                               ; preds = %11
  br label %55

15:                                               ; preds = %11, %11, %11, %11, %11, %11, %11, %11
  %16 = getelementptr inbounds %class.FunctionInvocation, ptr %7, i32 0, i32 2
  %17 = call noundef nonnull align 8 dereferenceable(8) ptr @_ZNKSt6vectorIPK10ExpressionSaIS2_EEixEm(ptr noundef nonnull align 8 dereferenceable(24) %16, i64 noundef 0) #3
  %18 = load ptr, ptr %17, align 8
  %19 = load ptr, ptr %18, align 8
  %20 = getelementptr inbounds ptr, ptr %19, i64 3
  %21 = load ptr, ptr %20, align 8
  %22 = call noundef nonnull align 8 dereferenceable(136) ptr %21(ptr noundef nonnull align 8 dereferenceable(24) %18)
  store ptr %22, ptr %4, align 8
  %23 = getelementptr inbounds %class.FunctionInvocation, ptr %7, i32 0, i32 2
  %24 = call noundef nonnull align 8 dereferenceable(8) ptr @_ZNKSt6vectorIPK10ExpressionSaIS2_EEixEm(ptr noundef nonnull align 8 dereferenceable(24) %23, i64 noundef 1) #3
  %25 = load ptr, ptr %24, align 8
  %26 = load ptr, ptr %25, align 8
  %27 = getelementptr inbounds ptr, ptr %26, i64 3
  %28 = load ptr, ptr %27, align 8
  %29 = call noundef nonnull align 8 dereferenceable(136) ptr %28(ptr noundef nonnull align 8 dereferenceable(24) %25)
  store ptr %29, ptr %5, align 8
  %30 = load ptr, ptr %4, align 8
  %31 = call noundef zeroext i1 @_ZNK4Type9is_signedEv(ptr noundef nonnull align 8 dereferenceable(136) %30)
  br i1 %31, label %32, label %37

32:                                               ; preds = %15
  %33 = load ptr, ptr %5, align 8
  %34 = call noundef zeroext i1 @_ZNK4Type9is_signedEv(ptr noundef nonnull align 8 dereferenceable(136) %33)
  br i1 %34, label %35, label %37

35:                                               ; preds = %32
  %36 = call noundef nonnull align 8 dereferenceable(136) ptr @_ZN4Type15get_simple_typeE11eSimpleType(i32 noundef 2)
  store ptr %36, ptr %2, align 8
  br label %57

37:                                               ; preds = %32, %15
  %38 = call noundef nonnull align 8 dereferenceable(136) ptr @_ZN4Type15get_simple_typeE11eSimpleType(i32 noundef 7)
  store ptr %38, ptr %2, align 8
  br label %57

39:                                               ; preds = %11, %11, %11, %11, %11, %11, %11, %11
  %40 = call noundef nonnull align 8 dereferenceable(136) ptr @_ZN4Type15get_simple_typeE11eSimpleType(i32 noundef 2)
  store ptr %40, ptr %2, align 8
  br label %57

41:                                               ; preds = %11, %11
  %42 = getelementptr inbounds %class.FunctionInvocation, ptr %7, i32 0, i32 2
  %43 = call noundef nonnull align 8 dereferenceable(8) ptr @_ZNKSt6vectorIPK10ExpressionSaIS2_EEixEm(ptr noundef nonnull align 8 dereferenceable(24) %42, i64 noundef 0) #3
  %44 = load ptr, ptr %43, align 8
  %45 = load ptr, ptr %44, align 8
  %46 = getelementptr inbounds ptr, ptr %45, i64 3
  %47 = load ptr, ptr %46, align 8
  %48 = call noundef nonnull align 8 dereferenceable(136) ptr %47(ptr noundef nonnull align 8 dereferenceable(24) %44)
  store ptr %48, ptr %6, align 8
  %49 = load ptr, ptr %6, align 8
  %50 = call noundef zeroext i1 @_ZNK4Type9is_signedEv(ptr noundef nonnull align 8 dereferenceable(136) %49)
  br i1 %50, label %51, label %53

51:                                               ; preds = %41
  %52 = call noundef nonnull align 8 dereferenceable(136) ptr @_ZN4Type15get_simple_typeE11eSimpleType(i32 noundef 2)
  store ptr %52, ptr %2, align 8
  br label %57

53:                                               ; preds = %41
  %54 = call noundef nonnull align 8 dereferenceable(136) ptr @_ZN4Type15get_simple_typeE11eSimpleType(i32 noundef 7)
  store ptr %54, ptr %2, align 8
  br label %57

55:                                               ; preds = %14
  %56 = call noundef nonnull align 8 dereferenceable(136) ptr @_ZN4Type15get_simple_typeE11eSimpleType(i32 noundef 2)
  store ptr %56, ptr %2, align 8
  br label %57

57:                                               ; preds = %55, %53, %51, %39, %37, %35, %9
  %58 = load ptr, ptr %2, align 8
  ret ptr %58
}