; Function Attrs: mustprogress uwtable
define dso_local noundef nonnull align 8 dereferenceable(136) ptr @_ZNK24FunctionInvocationBinary8get_typeEv(ptr nocapture noundef nonnull readonly align 8 dereferenceable(128) %0) unnamed_addr #4 align 2 {
  %2 = getelementptr inbounds i8, ptr %0, i64 48
  %3 = load ptr, ptr %2, align 8
  %4 = getelementptr inbounds i8, ptr %3, i64 4
  %5 = load i32, ptr %4, align 4
  %6 = icmp eq i32 %5, 4
  br i1 %6, label %38, label %7

7:                                                ; preds = %1
  %8 = getelementptr inbounds i8, ptr %0, i64 56
  %9 = load i32, ptr %8, align 8
  switch i32 %9, label %38 [
    i32 0, label %10
    i32 1, label %10
    i32 2, label %10
    i32 3, label %10
    i32 4, label %10
    i32 13, label %10
    i32 14, label %10
    i32 15, label %10
    i32 17, label %29
    i32 16, label %29
  ]

10:                                               ; preds = %7, %7, %7, %7, %7, %7, %7, %7
  %11 = getelementptr inbounds i8, ptr %0, i64 16
  %12 = load ptr, ptr %11, align 8
  %13 = load ptr, ptr %12, align 8
  %14 = load ptr, ptr %13, align 8
  %15 = getelementptr inbounds i8, ptr %14, i64 24
  %16 = load ptr, ptr %15, align 8
  %17 = tail call noundef nonnull align 8 dereferenceable(136) ptr %16(ptr noundef nonnull align 8 dereferenceable(24) %13)
  %18 = load ptr, ptr %11, align 8
  %19 = getelementptr inbounds i8, ptr %18, i64 8
  %20 = load ptr, ptr %19, align 8
  %21 = load ptr, ptr %20, align 8
  %22 = getelementptr inbounds i8, ptr %21, i64 24
  %23 = load ptr, ptr %22, align 8
  %24 = tail call noundef nonnull align 8 dereferenceable(136) ptr %23(ptr noundef nonnull align 8 dereferenceable(24) %20)
  %25 = tail call noundef zeroext i1 @_ZNK4Type9is_signedEv(ptr noundef nonnull align 8 dereferenceable(136) %17)
  br i1 %25, label %26, label %28

26:                                               ; preds = %10
  %27 = tail call noundef zeroext i1 @_ZNK4Type9is_signedEv(ptr noundef nonnull align 8 dereferenceable(136) %24)
  br i1 %27, label %38, label %28

28:                                               ; preds = %26, %10
  br label %38

29:                                               ; preds = %7, %7
  %30 = getelementptr inbounds i8, ptr %0, i64 16
  %31 = load ptr, ptr %30, align 8
  %32 = load ptr, ptr %31, align 8
  %33 = load ptr, ptr %32, align 8
  %34 = getelementptr inbounds i8, ptr %33, i64 24
  %35 = load ptr, ptr %34, align 8
  %36 = tail call noundef nonnull align 8 dereferenceable(136) ptr %35(ptr noundef nonnull align 8 dereferenceable(24) %32)
  %37 = tail call noundef zeroext i1 @_ZNK4Type9is_signedEv(ptr noundef nonnull align 8 dereferenceable(136) %36)
  %. = select i1 %37, i32 2, i32 7
  br label %38

38:                                               ; preds = %7, %29, %26, %1, %28
  %.sink = phi i32 [ 7, %28 ], [ 10, %1 ], [ 2, %26 ], [ %., %29 ], [ 2, %7 ]
  %39 = tail call noundef nonnull align 8 dereferenceable(136) ptr @_ZN4Type15get_simple_typeE11eSimpleType(i32 noundef %.sink)
  ret ptr %39
}